target datalayout = "e-m:e-p270:32:32-p271:32:32-p272:64:64-i64:64-i128:128-f80:128-n8:16:32:64-S128"
target triple = "x86_64-pc-linux-gnu"

%struct.opts_multi_pack_index = type { ptr, ptr, ptr, i64, i32, i32 }

@opts = internal global %struct.opts_multi_pack_index zeroinitializer, align 8
@.str.22 = private unnamed_addr constant [26 x i8] c"pack.writebitmaphashcache\00", align 1
@.str.23 = private unnamed_addr constant [28 x i8] c"pack.writebitmaplookuptable\00", align 1

; Function Attrs: nounwind uwtable
define internal i32 @git_multi_pack_index_write_config(ptr noundef %0, ptr noundef %1, ptr noundef %2, ptr noundef %3) #0 {
  %5 = alloca ptr, align 8
  %6 = alloca ptr, align 8
  %7 = alloca ptr, align 8
  %8 = alloca ptr, align 8
  store ptr %0, ptr %5, align 8, !tbaa !11
  store ptr %1, ptr %6, align 8, !tbaa !11
  store ptr %2, ptr %7, align 8, !tbaa !74
  store ptr %3, ptr %8, align 8, !tbaa !15
  %9 = load ptr, ptr %5, align 8, !tbaa !11
  %10 = call i32 @strcmp(ptr noundef %9, ptr noundef @.str.22) #11
  %11 = icmp ne i32 %10, 0
  br i1 %11, label %24, label %12

12:                                               ; preds = %4
  %13 = load ptr, ptr %5, align 8, !tbaa !11
  %14 = load ptr, ptr %6, align 8, !tbaa !11
  %15 = call i32 @git_config_bool(ptr noundef %13, ptr noundef %14)
  %16 = icmp ne i32 %15, 0
  br i1 %16, label %17, label %20

17:                                               ; preds = %12
  %18 = load i32, ptr getelementptr inbounds nuw (%struct.opts_multi_pack_index, ptr @opts, i32 0, i32 4), align 8, !tbaa !69
  %19 = or i32 %18, 8
  store i32 %19, ptr getelementptr inbounds nuw (%struct.opts_multi_pack_index, ptr @opts, i32 0, i32 4), align 8, !tbaa !69
  br label %23

20:                                               ; preds = %12
  %21 = load i32, ptr getelementptr inbounds nuw (%struct.opts_multi_pack_index, ptr @opts, i32 0, i32 4), align 8, !tbaa !69
  %22 = and i32 %21, -9
  store i32 %22, ptr getelementptr inbounds nuw (%struct.opts_multi_pack_index, ptr @opts, i32 0, i32 4), align 8, !tbaa !69
  br label %23

23:                                               ; preds = %20, %17
  br label %24

24:                                               ; preds = %23, %4
  %25 = load ptr, ptr %5, align 8, !tbaa !11
  %26 = call i32 @strcmp(ptr noundef %25, ptr noundef @.str.23) #11
  %27 = icmp ne i32 %26, 0
  br i1 %27, label %40, label %28

28:                                               ; preds = %24
  %29 = load ptr, ptr %5, align 8, !tbaa !11
  %30 = load ptr, ptr %6, align 8, !tbaa !11
  %31 = call i32 @git_config_bool(ptr noundef %29, ptr noundef %30)
  %32 = icmp ne i32 %31, 0
  br i1 %32, label %33, label %36

33:                                               ; preds = %28
  %34 = load i32, ptr getelementptr inbounds nuw (%struct.opts_multi_pack_index, ptr @opts, i32 0, i32 4), align 8, !tbaa !69
  %35 = or i32 %34, 16
  store i32 %35, ptr getelementptr inbounds nuw (%struct.opts_multi_pack_index, ptr @opts, i32 0, i32 4), align 8, !tbaa !69
  br label %39

36:                                               ; preds = %28
  %37 = load i32, ptr getelementptr inbounds nuw (%struct.opts_multi_pack_index, ptr @opts, i32 0, i32 4), align 8, !tbaa !69
  %38 = and i32 %37, -17
  store i32 %38, ptr getelementptr inbounds nuw (%struct.opts_multi_pack_index, ptr @opts, i32 0, i32 4), align 8, !tbaa !69
  br label %39

39:                                               ; preds = %36, %33
  br label %40

40:                                               ; preds = %39, %24
  ret i32 0
}