; Function Attrs: nounwind uwtable
define internal noundef i32 @git_multi_pack_index_write_config(ptr noundef %0, ptr noundef %1, ptr readnone captures(none) %2, ptr readnone captures(none) %3) #0 {
  %5 = tail call i32 @strcmp(ptr noundef nonnull dereferenceable(1) %0, ptr noundef nonnull dereferenceable(26) @.str.22) #11
  %.not = icmp eq i32 %5, 0
  br i1 %.not, label %.sink.split, label %9

.sink.split:                                      ; preds = %4
  %6 = tail call i32 @git_config_bool(ptr noundef nonnull %0, ptr noundef %1) #9
  %.not6 = icmp eq i32 %6, 0
  %7 = load i32, ptr getelementptr inbounds nuw (i8, ptr @opts, i64 32), align 8, !tbaa !57
  %8 = and i32 %7, -9
  %masksel = select i1 %.not6, i32 0, i32 8
  %.sink = or disjoint i32 %8, %masksel
  store i32 %.sink, ptr getelementptr inbounds nuw (i8, ptr @opts, i64 32), align 8, !tbaa !57
  br label %9

9:                                                ; preds = %.sink.split, %4
  %10 = tail call i32 @strcmp(ptr noundef nonnull dereferenceable(1) %0, ptr noundef nonnull dereferenceable(28) @.str.23) #11
  %.not7 = icmp eq i32 %10, 0
  br i1 %.not7, label %.sink.split9, label %14

.sink.split9:                                     ; preds = %9
  %11 = tail call i32 @git_config_bool(ptr noundef nonnull %0, ptr noundef %1) #9
  %.not8 = icmp eq i32 %11, 0
  %12 = load i32, ptr getelementptr inbounds nuw (i8, ptr @opts, i64 32), align 8, !tbaa !57
  %13 = and i32 %12, -17
  %masksel11 = select i1 %.not8, i32 0, i32 16
  %.sink10 = or disjoint i32 %13, %masksel11
  store i32 %.sink10, ptr getelementptr inbounds nuw (i8, ptr @opts, i64 32), align 8, !tbaa !57
  br label %14

14:                                               ; preds = %.sink.split9, %9
  ret i32 0
}